target datalayout = "e-m:e-p270:32:32-p271:32:32-p272:64:64-i64:64-i128:128-f80:128-n8:16:32:64-S128"
target triple = "x86_64-pc-linux-gnu"

%"class.std::__cxx11::basic_string" = type { %"struct.std::__cxx11::basic_string<char>::_Alloc_hider", i64, %union.anon }
%"struct.std::__cxx11::basic_string<char>::_Alloc_hider" = type { ptr }
%union.anon = type { i64, [8 x i8] }
%"struct.net::QuicConnectionCloseFrame" = type { i32, %"class.std::__cxx11::basic_string" }
%"class.base::BasicStringPiece" = type { ptr, i64 }

; Function Attrs: mustprogress nounwind uwtable
define available_externally noundef ptr @_ZNKSt7__cxx1112basic_stringIcSt11char_traitsIcESaIcEE7_M_dataEv(ptr noundef nonnull align 8 dereferenceable(32) %0) #1 align 2 {
  %2 = alloca ptr, align 8
  store ptr %0, ptr %2, align 8, !tbaa !66
  %3 = load ptr, ptr %2, align 8
  %4 = getelementptr inbounds nuw %"class.std::__cxx11::basic_string", ptr %3, i32 0, i32 0
  %5 = getelementptr inbounds nuw %"struct.std::__cxx11::basic_string<char>::_Alloc_hider", ptr %4, i32 0, i32 0
  %6 = load ptr, ptr %5, align 8, !tbaa !540
  ret ptr %6
}

; Function Attrs: mustprogress nounwind uwtable
define available_externally noundef i64 @_ZNKSt7__cxx1112basic_stringIcSt11char_traitsIcESaIcEE4sizeEv(ptr noundef nonnull align 8 dereferenceable(32) %0) #1 align 2 {
  %2 = alloca ptr, align 8
  store ptr %0, ptr %2, align 8, !tbaa !66
  %3 = load ptr, ptr %2, align 8
  %4 = getelementptr inbounds nuw %"class.std::__cxx11::basic_string", ptr %3, i32 0, i32 1
  %5 = load i64, ptr %4, align 8, !tbaa !368
  ret i64 %5
}

; Function Attrs: mustprogress nounwind uwtable
define available_externally noundef ptr @_ZNKSt7__cxx1112basic_stringIcSt11char_traitsIcESaIcEE4dataEv(ptr noundef nonnull align 8 dereferenceable(32) %0) #1 align 2 {
  %2 = alloca ptr, align 8
  store ptr %0, ptr %2, align 8, !tbaa !66
  %3 = load ptr, ptr %2, align 8
  %4 = call noundef ptr @_ZNKSt7__cxx1112basic_stringIcSt11char_traitsIcESaIcEE7_M_dataEv(ptr noundef nonnull align 8 dereferenceable(32) %3)
  ret ptr %4
}

; Function Attrs: mustprogress nounwind uwtable
define available_externally void @_ZN4base16BasicStringPieceINSt7__cxx1112basic_stringIcSt11char_traitsIcESaIcEEEEC2ERKS6_(ptr noundef nonnull align 8 dereferenceable(16) %0, ptr noundef nonnull align 8 dereferenceable(32) %1) unnamed_addr #1 align 2 {
  %3 = alloca ptr, align 8
  %4 = alloca ptr, align 8
  store ptr %0, ptr %3, align 8, !tbaa !276
  store ptr %1, ptr %4, align 8, !tbaa !66
  %5 = load ptr, ptr %3, align 8
  %6 = getelementptr inbounds nuw %"class.base::BasicStringPiece", ptr %5, i32 0, i32 0
  %7 = load ptr, ptr %4, align 8, !tbaa !66
  %8 = call noundef ptr @_ZNKSt7__cxx1112basic_stringIcSt11char_traitsIcESaIcEE4dataEv(ptr noundef nonnull align 8 dereferenceable(32) %7) #17
  store ptr %8, ptr %6, align 8, !tbaa !278
  %9 = getelementptr inbounds nuw %"class.base::BasicStringPiece", ptr %5, i32 0, i32 1
  %10 = load ptr, ptr %4, align 8, !tbaa !66
  %11 = call noundef i64 @_ZNKSt7__cxx1112basic_stringIcSt11char_traitsIcESaIcEE4sizeEv(ptr noundef nonnull align 8 dereferenceable(32) %10) #17
  store i64 %11, ptr %9, align 8, !tbaa !280
  ret void
}

; Function Attrs: mustprogress uwtable
define noundef zeroext i1 @_ZN3net10QuicFramer26AppendConnectionCloseFrameERKNS_24QuicConnectionCloseFrameEPNS_14QuicDataWriterE(ptr noundef nonnull align 8 dereferenceable(408) %0, ptr noundef nonnull align 8 dereferenceable(40) %1, ptr noundef %2) #0 align 2 {
  %4 = alloca i1, align 1
  %5 = alloca ptr, align 8
  %6 = alloca ptr, align 8
  %7 = alloca ptr, align 8
  %8 = alloca i32, align 4
  %9 = alloca i32, align 4
  %10 = alloca %"class.base::BasicStringPiece", align 8
  store ptr %0, ptr %5, align 8, !tbaa !3
  store ptr %1, ptr %6, align 8, !tbaa !219
  store ptr %2, ptr %7, align 8, !tbaa !160
  call void @llvm.lifetime.start.p0(i64 4, ptr %8) #17
  %11 = load ptr, ptr %6, align 8, !tbaa !219
  %12 = getelementptr inbounds nuw %"struct.net::QuicConnectionCloseFrame", ptr %11, i32 0, i32 0
  %13 = load i32, ptr %12, align 8, !tbaa !221
  store i32 %13, ptr %8, align 4, !tbaa !85
  %14 = load ptr, ptr %7, align 8, !tbaa !160
  %15 = load i32, ptr %8, align 4, !tbaa !85
  %16 = call noundef zeroext i1 @_ZN3net14QuicDataWriter11WriteUInt32Ej(ptr noundef nonnull align 8 dereferenceable(24) %14, i32 noundef %15)
  br i1 %16, label %18, label %17

17:                                               ; preds = %3
  store i1 false, ptr %4, align 1
  store i32 1, ptr %9, align 4
  br label %30

18:                                               ; preds = %3
  %19 = load ptr, ptr %7, align 8, !tbaa !160
  %20 = load ptr, ptr %6, align 8, !tbaa !219
  %21 = getelementptr inbounds nuw %"struct.net::QuicConnectionCloseFrame", ptr %20, i32 0, i32 1
  call void @_ZN4base16BasicStringPieceINSt7__cxx1112basic_stringIcSt11char_traitsIcESaIcEEEEC2ERKS6_(ptr noundef nonnull align 8 dereferenceable(16) %10, ptr noundef nonnull align 8 dereferenceable(32) %21)
  %22 = getelementptr inbounds nuw { ptr, i64 }, ptr %10, i32 0, i32 0
  %23 = load ptr, ptr %22, align 8
  %24 = getelementptr inbounds nuw { ptr, i64 }, ptr %10, i32 0, i32 1
  %25 = load i64, ptr %24, align 8
  %26 = call noundef zeroext i1 @_ZN3net14QuicDataWriter18WriteStringPiece16EN4base16BasicStringPieceINSt7__cxx1112basic_stringIcSt11char_traitsIcESaIcEEEEE(ptr noundef nonnull align 8 dereferenceable(24) %19, ptr %23, i64 %25)
  %27 = xor i1 %26, true
  br i1 %27, label %28, label %29

28:                                               ; preds = %18
  store i1 false, ptr %4, align 1
  store i32 1, ptr %9, align 4
  br label %30

29:                                               ; preds = %18
  store i1 true, ptr %4, align 1
  store i32 1, ptr %9, align 4
  br label %30

30:                                               ; preds = %29, %28, %17
  call void @llvm.lifetime.end.p0(i64 4, ptr %8) #17
  %31 = load i1, ptr %4, align 1
  ret i1 %31
}