; Function Attrs: mustprogress uwtable
define noundef zeroext i1 @_ZN3net10QuicFramer26AppendConnectionCloseFrameERKNS_24QuicConnectionCloseFrameEPNS_14QuicDataWriterE(ptr noundef nonnull readnone align 8 captures(none) dereferenceable(408) %0, ptr noundef nonnull readonly align 8 captures(none) dereferenceable(40) %1, ptr noundef nonnull %2) local_unnamed_addr #0 align 2 {
  %4 = load i32, ptr %1, align 8, !tbaa !154
  %5 = tail call noundef zeroext i1 @_ZN3net14QuicDataWriter11WriteUInt32Ej(ptr noundef nonnull align 8 dereferenceable(24) %2, i32 noundef %4)
  br i1 %5, label %6, label %12

6:                                                ; preds = %3
  %7 = getelementptr inbounds nuw i8, ptr %1, i64 8
  %8 = load ptr, ptr %7, align 8, !tbaa !70
  %9 = getelementptr inbounds nuw i8, ptr %1, i64 16
  %10 = load i64, ptr %9, align 8, !tbaa !11
  %11 = tail call noundef zeroext i1 @_ZN3net14QuicDataWriter18WriteStringPiece16EN4base16BasicStringPieceINSt7__cxx1112basic_stringIcSt11char_traitsIcESaIcEEEEE(ptr noundef nonnull align 8 dereferenceable(24) %2, ptr %8, i64 %10)
  br label %12

12:                                               ; preds = %6, %3
  %.0 = phi i1 [ false, %3 ], [ %11, %6 ]
  ret i1 %.0
}